target datalayout = "e-m:e-p270:32:32-p271:32:32-p272:64:64-i64:64-i128:128-f80:128-n8:16:32:64-S128"
target triple = "x86_64-pc-linux-gnu"

%class.MeshDocumentStateData = type { %class.QReadWriteLock, %class.QMap }
%class.QReadWriteLock = type { %class.QAtomicPointer }
%class.QAtomicPointer = type { %class.QBasicAtomicPointer }
%class.QBasicAtomicPointer = type { %"struct.std::atomic" }
%"struct.std::atomic" = type { %"struct.std::__atomic_base" }
%"struct.std::__atomic_base" = type { ptr }
%class.QMap = type { ptr }
%class.QWriteLocker = type { i64 }

; Function Attrs: mustprogress nounwind uwtable
define linkonce_odr noundef ptr @_ZNK12QWriteLocker13readWriteLockEv(ptr noundef nonnull align 8 dereferenceable(8) %0) #4 comdat align 2 {
  %2 = alloca ptr, align 8
  store ptr %0, ptr %2, align 8
  %3 = load ptr, ptr %2, align 8
  %4 = getelementptr inbounds %class.QWriteLocker, ptr %3, i32 0, i32 0
  %5 = load i64, ptr %4, align 8
  %6 = and i64 %5, -2
  %7 = inttoptr i64 %6 to ptr
  ret ptr %7
}

; Function Attrs: mustprogress uwtable
define linkonce_odr void @_ZN12QWriteLocker6unlockEv(ptr noundef nonnull align 8 dereferenceable(8) %0) #5 comdat align 2 {
  %2 = alloca ptr, align 8
  store ptr %0, ptr %2, align 8
  %3 = load ptr, ptr %2, align 8
  %4 = getelementptr inbounds %class.QWriteLocker, ptr %3, i32 0, i32 0
  %5 = load i64, ptr %4, align 8
  %6 = icmp ne i64 %5, 0
  br i1 %6, label %7, label %18

7:                                                ; preds = %1
  %8 = getelementptr inbounds %class.QWriteLocker, ptr %3, i32 0, i32 0
  %9 = load i64, ptr %8, align 8
  %10 = and i64 %9, 1
  %11 = icmp eq i64 %10, 1
  br i1 %11, label %12, label %17

12:                                               ; preds = %7
  %13 = getelementptr inbounds %class.QWriteLocker, ptr %3, i32 0, i32 0
  %14 = load i64, ptr %13, align 8
  %15 = and i64 %14, -2
  store i64 %15, ptr %13, align 8
  %16 = call noundef ptr @_ZNK12QWriteLocker13readWriteLockEv(ptr noundef nonnull align 8 dereferenceable(8) %3)
  call void @_ZN14QReadWriteLock6unlockEv(ptr noundef nonnull align 8 dereferenceable(8) %16)
  br label %17

17:                                               ; preds = %12, %7
  br label %18

18:                                               ; preds = %17, %1
  ret void
}

; Function Attrs: mustprogress uwtable
define linkonce_odr void @_ZN12QWriteLocker6relockEv(ptr noundef nonnull align 8 dereferenceable(8) %0) #5 comdat align 2 {
  %2 = alloca ptr, align 8
  store ptr %0, ptr %2, align 8
  %3 = load ptr, ptr %2, align 8
  %4 = getelementptr inbounds %class.QWriteLocker, ptr %3, i32 0, i32 0
  %5 = load i64, ptr %4, align 8
  %6 = icmp ne i64 %5, 0
  br i1 %6, label %7, label %18

7:                                                ; preds = %1
  %8 = getelementptr inbounds %class.QWriteLocker, ptr %3, i32 0, i32 0
  %9 = load i64, ptr %8, align 8
  %10 = and i64 %9, 1
  %11 = icmp eq i64 %10, 0
  br i1 %11, label %12, label %17

12:                                               ; preds = %7
  %13 = call noundef ptr @_ZNK12QWriteLocker13readWriteLockEv(ptr noundef nonnull align 8 dereferenceable(8) %3)
  call void @_ZN14QReadWriteLock12lockForWriteEv(ptr noundef nonnull align 8 dereferenceable(8) %13)
  %14 = getelementptr inbounds %class.QWriteLocker, ptr %3, i32 0, i32 0
  %15 = load i64, ptr %14, align 8
  %16 = or i64 %15, 1
  store i64 %16, ptr %14, align 8
  br label %17

17:                                               ; preds = %12, %7
  br label %18

18:                                               ; preds = %17, %1
  ret void
}

; Function Attrs: mustprogress nounwind uwtable
define linkonce_odr void @_ZN12QWriteLockerD2Ev(ptr noundef nonnull align 8 dereferenceable(8) %0) unnamed_addr #4 comdat align 2 personality ptr @__gxx_personality_v0 {
  %2 = alloca ptr, align 8
  store ptr %0, ptr %2, align 8
  %3 = load ptr, ptr %2, align 8
  invoke void @_ZN12QWriteLocker6unlockEv(ptr noundef nonnull align 8 dereferenceable(8) %3)
          to label %4 unwind label %5

4:                                                ; preds = %1
  ret void

5:                                                ; preds = %1
  %6 = landingpad { ptr, i32 }
          catch ptr null
  %7 = extractvalue { ptr, i32 } %6, 0
  call void @__clang_call_terminate(ptr %7) #13
  unreachable
}

; Function Attrs: mustprogress uwtable
define linkonce_odr void @_ZN12QWriteLockerC2EP14QReadWriteLock(ptr noundef nonnull align 8 dereferenceable(8) %0, ptr noundef %1) unnamed_addr #5 comdat align 2 {
  %3 = alloca ptr, align 8
  %4 = alloca ptr, align 8
  store ptr %0, ptr %3, align 8
  store ptr %1, ptr %4, align 8
  %5 = load ptr, ptr %3, align 8
  %6 = getelementptr inbounds %class.QWriteLocker, ptr %5, i32 0, i32 0
  %7 = load ptr, ptr %4, align 8
  %8 = ptrtoint ptr %7 to i64
  store i64 %8, ptr %6, align 8
  call void @_ZN12QWriteLocker6relockEv(ptr noundef nonnull align 8 dereferenceable(8) %5)
  ret void
}

; Function Attrs: mustprogress uwtable
define void @_ZN21MeshDocumentStateData5clearEv(ptr noundef nonnull align 8 dereferenceable(16) %0) #5 align 2 {
  %2 = alloca ptr, align 8
  %3 = alloca %class.QWriteLocker, align 8
  store ptr %0, ptr %2, align 8
  %4 = load ptr, ptr %2, align 8
  %5 = getelementptr inbounds %class.MeshDocumentStateData, ptr %4, i32 0, i32 0
  call void @_ZN12QWriteLockerC2EP14QReadWriteLock(ptr noundef nonnull align 8 dereferenceable(8) %3, ptr noundef %5)
  %6 = getelementptr inbounds %class.MeshDocumentStateData, ptr %4, i32 0, i32 1
  call void @_ZN4QMapIi18MeshModelStateDataE5clearEv(ptr noundef nonnull align 8 dereferenceable(8) %6)
  call void @_ZN12QWriteLockerD2Ev(ptr noundef nonnull align 8 dereferenceable(8) %3) #3
  ret void
}