; Function Attrs: mustprogress uwtable
define void @_ZN21MeshDocumentStateData5clearEv(ptr noundef nonnull align 8 dereferenceable(16) %0) local_unnamed_addr #10 align 2 personality ptr @__gxx_personality_v0 {
  tail call void @_ZN14QReadWriteLock12lockForWriteEv(ptr noundef nonnull align 8 dereferenceable(8) %0)
  %2 = getelementptr inbounds nuw i8, ptr %0, i64 8
  tail call void @_ZN4QMapIi18MeshModelStateDataE5clearEv(ptr noundef nonnull align 8 dereferenceable(8) %2)
  invoke void @_ZN14QReadWriteLock6unlockEv(ptr noundef nonnull align 8 dereferenceable(8) %0)
          to label %_ZN12QWriteLockerD2Ev.exit unwind label %3

3:                                                ; preds = %1
  %4 = landingpad { ptr, i32 }
          catch ptr null
  %5 = extractvalue { ptr, i32 } %4, 0
  tail call void @__clang_call_terminate(ptr %5) #17
  unreachable

_ZN12QWriteLockerD2Ev.exit:                       ; preds = %1
  ret void
}